; Function Attrs: nounwind uwtable
define internal ptr @async_gen_athrow(ptr noundef %0, ptr noundef %1) #2 {
  %3 = getelementptr i8, ptr %1, i64 16
  %.val = load i64, ptr %3, align 8, !tbaa !187
  %4 = icmp sgt i64 %.val, 1
  br i1 %4, label %5, label %9

5:                                                ; preds = %2
  %6 = load ptr, ptr @PyExc_DeprecationWarning, align 8, !tbaa !32
  %7 = tail call i32 @PyErr_WarnEx(ptr noundef %6, ptr noundef nonnull @.str.68, i64 noundef 1) #8
  %8 = icmp slt i32 %7, 0
  br i1 %8, label %async_gen_athrow_new.exit, label %9

9:                                                ; preds = %5, %2
  %10 = tail call fastcc i32 @async_gen_init_hooks(ptr noundef %0)
  %.not = icmp eq i32 %10, 0
  br i1 %.not, label %11, label %async_gen_athrow_new.exit

11:                                               ; preds = %9
  %12 = tail call ptr @_PyObject_GC_New(ptr noundef nonnull @_PyAsyncGenAThrow_Type) #8
  %13 = icmp eq ptr %12, null
  br i1 %13, label %async_gen_athrow_new.exit, label %14

14:                                               ; preds = %11
  %15 = load i32, ptr %0, align 8, !tbaa !4
  %16 = icmp slt i32 %15, 0
  br i1 %16, label %19, label %17

17:                                               ; preds = %14
  %18 = add nuw i32 %15, 1
  store i32 %18, ptr %0, align 8, !tbaa !4
  br label %19

19:                                               ; preds = %14, %17
  %20 = getelementptr inbounds nuw i8, ptr %12, i64 16
  store ptr %0, ptr %20, align 8, !tbaa !173
  %21 = load i32, ptr %1, align 8, !tbaa !4
  %22 = icmp slt i32 %21, 0
  br i1 %22, label %_Py_XNewRef.exit.i, label %23

23:                                               ; preds = %19
  %24 = add nuw i32 %21, 1
  store i32 %24, ptr %1, align 8, !tbaa !4
  br label %_Py_XNewRef.exit.i

_Py_XNewRef.exit.i:                               ; preds = %23, %19
  %25 = getelementptr inbounds nuw i8, ptr %12, i64 24
  store ptr %1, ptr %25, align 8, !tbaa !175
  %26 = getelementptr inbounds nuw i8, ptr %12, i64 32
  store i32 0, ptr %26, align 8, !tbaa !176
  %27 = getelementptr i8, ptr %12, i64 -16
  %28 = tail call align 8 ptr @llvm.threadlocal.address.p0(ptr align 8 @_Py_tss_tstate)
  %29 = load ptr, ptr %28, align 8, !tbaa !39
  %30 = getelementptr inbounds nuw i8, ptr %29, i64 16
  %31 = load ptr, ptr %30, align 8, !tbaa !41
  %32 = getelementptr inbounds nuw i8, ptr %31, i64 7424
  %33 = getelementptr inbounds nuw i8, ptr %31, i64 7432
  %34 = load i64, ptr %33, align 8, !tbaa !35
  %35 = inttoptr i64 %34 to ptr
  %36 = ptrtoint ptr %27 to i64
  %37 = load i64, ptr %35, align 8, !tbaa !37
  %38 = and i64 %37, 3
  %39 = or i64 %38, %36
  store i64 %39, ptr %35, align 8, !tbaa !37
  %40 = getelementptr i8, ptr %12, i64 -8
  %41 = load i64, ptr %40, align 8, !tbaa !35
  %42 = and i64 %41, 3
  %43 = or i64 %42, %34
  store i64 %43, ptr %40, align 8, !tbaa !35
  %44 = getelementptr inbounds nuw i8, ptr %31, i64 7632
  %45 = load i32, ptr %44, align 8, !tbaa !47
  %46 = xor i32 %45, 1
  %47 = sext i32 %46 to i64
  %48 = ptrtoint ptr %32 to i64
  %49 = or i64 %47, %48
  store i64 %49, ptr %27, align 8, !tbaa !37
  store i64 %36, ptr %33, align 8, !tbaa !35
  br label %async_gen_athrow_new.exit

async_gen_athrow_new.exit:                        ; preds = %_Py_XNewRef.exit.i, %11, %9, %5
  %.0 = phi ptr [ null, %5 ], [ null, %9 ], [ null, %11 ], [ %12, %_Py_XNewRef.exit.i ]
  ret ptr %.0
}